Archive member included to satisfy reference by file (symbol)

C:/Users/jingru/Documents/git/learn_python/generator/test/out/obj_emsk_11/gnu_arcem4/board/emsk/common/emsk_init.o
                              C:/Users/jingru/Documents/git/learn_python/generator/test/out/obj_emsk_11/gnu_arcem4/board/board.o (board_init)
C:/Users/jingru/Documents/git/learn_python/generator/test/out/obj_emsk_11/gnu_arcem4/board/emsk/common/emsk_timer.o
                              C:/Users/jingru/Documents/git/learn_python/generator/test/out/obj_emsk_11/gnu_arcem4/board/emsk/common/emsk_init.o (emsk_timer_init)
C:/Users/jingru/Documents/git/learn_python/generator/test/out/obj_emsk_11/gnu_arcem4/board/emsk/drivers/mux/mux.o
                              C:/Users/jingru/Documents/git/learn_python/generator/test/out/obj_emsk_11/gnu_arcem4/board/emsk/common/emsk_init.o (io_mux_init)
C:/Users/jingru/Documents/git/learn_python/generator/test/out/obj_emsk_11/gnu_arcem4/middleware/common/console_io.o
                              C:/Users/jingru/Documents/git/learn_python/generator/test/out/obj_emsk_11/gnu_arcem4/board/board.o (xprintf_setup)
C:/Users/jingru/Documents/git/learn_python/generator/test/out/obj_emsk_11/gnu_arcem4/middleware/common/xprintf/xprintf.o
                              C:/Users/jingru/Documents/git/learn_python/generator/test/out/obj_emsk_11/gnu_arcem4/middleware/common/console_io.o (xfunc_out)
C:/Users/jingru/Documents/git/learn_python/generator/test/out/obj_emsk_11/gnu_arcem4/arc/arc_timer.o
                              C:/Users/jingru/Documents/git/learn_python/generator/test/out/obj_emsk_11/gnu_arcem4/board/emsk/common/emsk_timer.o (timer_present)
C:/Users/jingru/Documents/git/learn_python/generator/test/out/obj_emsk_11/gnu_arcem4/arc/arc_cache.o
                              C:/Users/jingru/Documents/git/learn_python/generator/test/out/obj_emsk_11/gnu_arcem4/arc/startup/arc_startup.o (arc_cache_init)
C:/Users/jingru/Documents/git/learn_python/generator/test/out/obj_emsk_11/gnu_arcem4/arc/arc_exception.o
                              C:/Users/jingru/Documents/git/learn_python/generator/test/out/obj_emsk_11/gnu_arcem4/arc/startup/arc_startup.o (exc_int_init)
C:/Users/jingru/Documents/git/learn_python/generator/test/out/obj_emsk_11/gnu_arcem4/arc/arc_exc_asm.o
                              C:/Users/jingru/Documents/git/learn_python/generator/test/out/obj_emsk_11/gnu_arcem4/arc/arc_exception.o (exc_entry_cpu)
C:/Users/jingru/Documents/git/learn_python/generator/test/out/obj_emsk_11/gnu_arcem4/library/clib/embARC_misc.o
                              C:/Users/jingru/Documents/git/learn_python/generator/test/out/obj_emsk_11/gnu_arcem4/middleware/common/console_io.o (gnu_printf_setup)
C:/Users/jingru/Documents/git/learn_python/generator/test/out/obj_emsk_11/gnu_arcem4/board/emsk/drivers/ip/designware/uart/dw_uart_obj.o
                              C:/Users/jingru/Documents/git/learn_python/generator/test/out/obj_emsk_11/gnu_arcem4/middleware/common/console_io.o (uart_get_dev)
C:/Users/jingru/Documents/git/learn_python/generator/test/out/obj_emsk_11/gnu_arcem4/device/ip/designware/uart/dw_uart.o
                              C:/Users/jingru/Documents/git/learn_python/generator/test/out/obj_emsk_11/gnu_arcem4/board/emsk/drivers/ip/designware/uart/dw_uart_obj.o (dw_uart_open)
C:/Users/jingru/Documents/git/learn_python/generator/test/out/obj_emsk_11/gnu_arcem4/board/emsk/common/emsk_gpio.o
                              C:/Users/jingru/Documents/git/learn_python/generator/test/out/obj_emsk_11/gnu_arcem4/board/emsk/common/emsk_init.o (emsk_gpio_init)
C:/Users/jingru/Documents/git/learn_python/generator/test/out/obj_emsk_11/gnu_arcem4/board/emsk/drivers/ip/designware/gpio/dw_gpio_obj.o
                              C:/Users/jingru/Documents/git/learn_python/generator/test/out/obj_emsk_11/gnu_arcem4/board/emsk/common/emsk_gpio.o (gpio_get_dev)
C:/Users/jingru/Documents/git/learn_python/generator/test/out/obj_emsk_11/gnu_arcem4/device/ip/designware/gpio/dw_gpio.o
                              C:/Users/jingru/Documents/git/learn_python/generator/test/out/obj_emsk_11/gnu_arcem4/board/emsk/drivers/ip/designware/gpio/dw_gpio_obj.o (dw_gpio_open)
c:/arc_gnu/bin/../lib/gcc/arc-elf32/7.3.1/../../../../arc-elf32/lib/em4_dmips\libc.a(lib_a-memcpy-bs.o)
                              C:/Users/jingru/Documents/git/learn_python/generator/test/out/obj_emsk_11/gnu_arcem4/device/ip/designware/uart/dw_uart.o (memcpy)
c:/arc_gnu/bin/../lib/gcc/arc-elf32/7.3.1/../../../../arc-elf32/lib/em4_dmips\libc.a(lib_a-memset-bs.o)
                              C:/Users/jingru/Documents/git/learn_python/generator/test/out/obj_emsk_11/gnu_arcem4/device/ip/designware/uart/dw_uart.o (memset)
c:/arc_gnu/bin/../lib/gcc/arc-elf32/7.3.1/em4_dmips\libgcc.a(_millicodethunk_st.o)
                              C:/Users/jingru/Documents/git/learn_python/generator/test/out/obj_emsk_11/gnu_arcem4/arc/startup/arc_cxx_support.o (__st_r13_to_r15)
c:/arc_gnu/bin/../lib/gcc/arc-elf32/7.3.1/em4_dmips\libgcc.a(_millicodethunk_ld.o)
                              C:/Users/jingru/Documents/git/learn_python/generator/test/out/obj_emsk_11/gnu_arcem4/middleware/common/xprintf/xprintf.o (__ld_r13_to_r15)
c:/arc_gnu/bin/../lib/gcc/arc-elf32/7.3.1/em4_dmips\libgcc.a(_millicodethunk_ret.o)
                              C:/Users/jingru/Documents/git/learn_python/generator/test/out/obj_emsk_11/gnu_arcem4/arc/startup/arc_cxx_support.o (__ld_r13_to_r14_ret)
c:/arc_gnu/bin/../lib/gcc/arc-elf32/7.3.1/em4_dmips\libgcc.a(_divdi3.o)
                              C:/Users/jingru/Documents/git/learn_python/generator/test/out/obj_emsk_11/gnu_arcem4/board/emsk/common/emsk_timer.o (__divdi3)
c:/arc_gnu/bin/../lib/gcc/arc-elf32/7.3.1/em4_dmips\libgcc.a(_udivdi3.o)
                              C:/Users/jingru/Documents/git/learn_python/generator/test/out/obj_emsk_11/gnu_arcem4/board/emsk/common/emsk_timer.o (__udivdi3)

Allocating common symbols
Common symbol       size              file

xfunc_in            0x4               C:/Users/jingru/Documents/git/learn_python/generator/test/out/obj_emsk_11/gnu_arcem4/middleware/common/xprintf/xprintf.o
dw_uart_0           0x5c              C:/Users/jingru/Documents/git/learn_python/generator/test/out/obj_emsk_11/gnu_arcem4/board/emsk/drivers/ip/designware/uart/dw_uart_obj.o
xfunc_out           0x4               C:/Users/jingru/Documents/git/learn_python/generator/test/out/obj_emsk_11/gnu_arcem4/middleware/common/xprintf/xprintf.o
exc_nest_count      0x4               C:/Users/jingru/Documents/git/learn_python/generator/test/out/obj_emsk_11/gnu_arcem4/arc/arc_exception.o
dw_uart_1           0x5c              C:/Users/jingru/Documents/git/learn_python/generator/test/out/obj_emsk_11/gnu_arcem4/board/emsk/drivers/ip/designware/uart/dw_uart_obj.o

Memory Configuration

Name             Origin             Length             Attributes
ICCM             0x00000000         0x00020000
DCCM             0x80000000         0x00010000
EXT_RAM          0x10000000         0x08000000
*default*        0x00000000         0xffffffff

Linker script and memory map

LOAD c:/arc_gnu/bin/../lib/gcc/arc-elf32/7.3.1/../../../../arc-elf32/lib/em4_dmips\libm.a

.init           0x00000000      0x1b0
                0x00000000                _f_init = .
 *(.init_vector)
 .init_vector   0x00000000        0x4 C:/Users/jingru/Documents/git/learn_python/generator/test/out/obj_emsk_11/gnu_arcem4/arc/startup/arc_startup.o
 *(.init_bootstrap)
 .init_bootstrap
                0x00000004      0x1ac C:/Users/jingru/Documents/git/learn_python/generator/test/out/obj_emsk_11/gnu_arcem4/arc/startup/arc_startup.o
                0x00000004                _arc_reset
                0x00000004                _start
                0x0000019c                _exit_loop
                0x0000019c                _exit_halt
                0x000001b0                _e_init = .

.vector         0x00000400      0x400
                0x00000400                _f_vector = .
 *(.vector)
 .vector        0x00000400      0x400 C:/Users/jingru/Documents/git/learn_python/generator/test/out/obj_emsk_11/gnu_arcem4/arc/arc_exception.o
                0x00000400                exc_entry_table
                0x00000800                _e_vector = .

.text           0x00000800     0x30c8
                0x00000800                _f_text = .
 *(.text .text.* .gnu.linkonce.t.*)
 .text          0x00000800        0x0 C:/Users/jingru/Documents/git/learn_python/generator/test/out/obj_emsk_11/gnu_arcem4/application/./main.o
 .text.startup  0x00000800       0x14 C:/Users/jingru/Documents/git/learn_python/generator/test/out/obj_emsk_11/gnu_arcem4/application/./main.o
                0x00000800                main
 .text          0x00000814       0x34 C:/Users/jingru/Documents/git/learn_python/generator/test/out/obj_emsk_11/gnu_arcem4/board/board.o
                0x00000814                board_main
 .text          0x00000848       0x88 C:/Users/jingru/Documents/git/learn_python/generator/test/out/obj_emsk_11/gnu_arcem4/arc/startup/arc_cxx_support.o
                0x00000848                __do_global_ctors_aux
                0x00000874                __do_global_dtors_aux
                0x000008a0                __cxa_atexit
                0x000008a4                __do_init_array_aux
                0x000008cc                __cxa_pure_virtual
 .text          0x000008d0        0x0 C:/Users/jingru/Documents/git/learn_python/generator/test/out/obj_emsk_11/gnu_arcem4/arc/startup/arc_startup.o
 .text          0x000008d0       0x14 C:/Users/jingru/Documents/git/learn_python/generator/test/out/obj_emsk_11/gnu_arcem4/board/emsk/common/emsk_init.o
                0x000008d0                board_init
 .text          0x000008e4      0x174 C:/Users/jingru/Documents/git/learn_python/generator/test/out/obj_emsk_11/gnu_arcem4/board/emsk/common/emsk_timer.o
                0x000008e4                board_timer_update
                0x00000940                emsk_timer_init
                0x00000978                board_get_hwticks
                0x000009b0                board_get_cur_us
                0x00000a08                board_delay_ms
 .text          0x00000a58      0x104 C:/Users/jingru/Documents/git/learn_python/generator/test/out/obj_emsk_11/gnu_arcem4/board/emsk/drivers/mux/mux.o
                0x00000a58                set_pmod_mux
                0x00000a64                get_pmod_mux
                0x00000a70                set_spi_map
                0x00000a7c                set_uart_map
                0x00000a88                io_mikro_config
                0x00000a90                io_arduino_config_spi
                0x00000a98                io_arduino_config_uart
                0x00000aa0                io_arduino_config_i2c
                0x00000aa8                io_arduino_config
                0x00000ab0                io_pmod_config
                0x00000b34                io_mux_init
 .text          0x00000b5c      0x120 C:/Users/jingru/Documents/git/learn_python/generator/test/out/obj_emsk_11/gnu_arcem4/middleware/common/console_io.o
                0x00000b5c                console_putchar
                0x00000b88                console_getchar
                0x00000bc4                console_putstr
                0x00000bd8                console_getstr
                0x00000bec                xprintf_setup
 .text          0x00000c7c      0x4f0 C:/Users/jingru/Documents/git/learn_python/generator/test/out/obj_emsk_11/gnu_arcem4/middleware/common/xprintf/xprintf.o
                0x00000c7c                xputc
                0x00000cc0                xputs
                0x00000ce0                xfputs
                0x00000d0c                xvprintf
                0x00000edc                xprintf
                0x00000f04                xsprintf
                0x00000f48                xfprintf
                0x00000f88                put_dump
                0x00001024                xgets
                0x00001090                xfgets
                0x000010b4                xatoi
 .text          0x0000116c      0x1a8 C:/Users/jingru/Documents/git/learn_python/generator/test/out/obj_emsk_11/gnu_arcem4/arc/arc_timer.o
                0x0000116c                timer_present
                0x00001194                timer_start
                0x00001208                timer_stop
                0x0000127c                timer_current
                0x000012c0                timer_int_clear
                0x000012fc                timer_init
 .text          0x00001314      0x3d8 C:/Users/jingru/Documents/git/learn_python/generator/test/out/obj_emsk_11/gnu_arcem4/arc/arc_cache.o
                0x00001314                icache_invalidate_mlines
                0x00001368                icache_lock_mlines
                0x000013c8                icache_direct_write
                0x000013f4                icache_direct_read
                0x00001420                icache_indirect_read
                0x00001454                dcache_invalidate_mlines
                0x000014b0                dcache_flush_mlines
                0x0000150c                dcache_lock_mlines
                0x0000156c                dcache_direct_write
                0x00001598                dcache_direct_read
                0x000015c4                dcache_indirect_read
                0x000015f8                arc_cache_init
 .text          0x000016ec      0x334 C:/Users/jingru/Documents/git/learn_python/generator/test/out/obj_emsk_11/gnu_arcem4/arc/arc_exception.o
                0x0000177c                exc_int_init
                0x000017c8                exc_entry_install
                0x00001838                exc_entry_get
                0x0000184c                exc_handler_install
                0x00001864                exc_handler_get
                0x00001878                int_disable
                0x0000189c                int_enable
                0x000018c0                int_enabled
                0x000018dc                int_ipm_get
                0x000018ec                int_ipm_set
                0x00001904                int_pri_get
                0x00001924                int_pri_set
                0x00001958                int_secure_set
                0x00001988                int_probe
                0x000019a4                int_sw_trigger
                0x000019bc                int_level_config
                0x000019dc                cpu_lock
                0x000019e4                cpu_unlock
                0x000019ec                cpu_lock_save
                0x000019f4                cpu_unlock_restore
                0x000019fc                int_handler_install
                0x00001a08                int_handler_get
 .text          0x00001a20      0x344 C:/Users/jingru/Documents/git/learn_python/generator/test/out/obj_emsk_11/gnu_arcem4/arc/arc_exc_asm.o
                0x00001a20                exc_entry_cpu
                0x00001b90                exc_entry_int
                0x00001c28                exc_entry_firq
 .text          0x00001d64        0x4 C:/Users/jingru/Documents/git/learn_python/generator/test/out/obj_emsk_11/gnu_arcem4/library/clib/embARC_misc.o
                0x00001d64                gnu_printf_setup
 .text          0x00001d68      0x17c C:/Users/jingru/Documents/git/learn_python/generator/test/out/obj_emsk_11/gnu_arcem4/board/emsk/drivers/ip/designware/uart/dw_uart_obj.o
                0x00001e10                dw_uart_all_install
                0x00001ea4                uart_get_dev
 .text          0x00001ee4      0x794 C:/Users/jingru/Documents/git/learn_python/generator/test/out/obj_emsk_11/gnu_arcem4/device/ip/designware/uart/dw_uart.o
                0x000020e0                dw_uart_open
                0x000021f0                dw_uart_close
                0x00002268                dw_uart_control
                0x000024ac                dw_uart_write
                0x00002514                dw_uart_read
                0x0000257c                dw_uart_isr
 .text          0x00002678      0x1cc C:/Users/jingru/Documents/git/learn_python/generator/test/out/obj_emsk_11/gnu_arcem4/board/emsk/common/emsk_gpio.o
                0x00002678                emsk_button_init
                0x000026c4                emsk_switch_init
                0x00002710                led_write
                0x0000272c                emsk_led_init
                0x00002788                emsk_gpio_init
                0x00002798                led_toggle
                0x000027ac                led_read
                0x000027dc                switch_read
                0x00002810                button_read
 .text          0x00002844      0x324 C:/Users/jingru/Documents/git/learn_python/generator/test/out/obj_emsk_11/gnu_arcem4/board/emsk/drivers/ip/designware/gpio/dw_gpio_obj.o
                0x00002994                dw_gpio_all_install
                0x00002b30                gpio_get_dev
 .text          0x00002b68      0x464 C:/Users/jingru/Documents/git/learn_python/generator/test/out/obj_emsk_11/gnu_arcem4/device/ip/designware/gpio/dw_gpio.o
                0x00002b94                dw_gpio_open
                0x00002c50                dw_gpio_close
                0x00002cd0                dw_gpio_read
                0x00002d28                dw_gpio_write
                0x00002d60                dw_gpio_control
                0x00002ef8                dw_gpio_isr_handler
                0x00002f68                dw_gpio_bit_isr_handler
 .text          0x00002fcc       0x80 c:/arc_gnu/bin/../lib/gcc/arc-elf32/7.3.1/../../../../arc-elf32/lib/em4_dmips\libc.a(lib_a-memcpy-bs.o)
                0x00002fcc                memcpy
 .text          0x0000304c       0x6c c:/arc_gnu/bin/../lib/gcc/arc-elf32/7.3.1/../../../../arc-elf32/lib/em4_dmips\libc.a(lib_a-memset-bs.o)
                0x0000304c                memset
                0x000030a0                __strncpy_bzero
 .text          0x000030b8       0x30 c:/arc_gnu/bin/../lib/gcc/arc-elf32/7.3.1/em4_dmips\libgcc.a(_millicodethunk_st.o)
                0x000030b8                __st_r13_to_r25
                0x000030bc                __st_r13_to_r24
                0x000030c0                __st_r13_to_r23
                0x000030c4                __st_r13_to_r22
                0x000030c8                __st_r13_to_r21
                0x000030cc                __st_r13_to_r20
                0x000030d0                __st_r13_to_r19
                0x000030d4                __st_r13_to_r18
                0x000030d8                __st_r13_to_r17
                0x000030dc                __st_r13_to_r16
                0x000030e0                __st_r13_to_r15
 .text          0x000030e8       0x30 c:/arc_gnu/bin/../lib/gcc/arc-elf32/7.3.1/em4_dmips\libgcc.a(_millicodethunk_ld.o)
                0x000030e8                __ld_r13_to_r25
                0x000030ec                __ld_r13_to_r24
                0x000030f0                __ld_r13_to_r23
                0x000030f4                __ld_r13_to_r22
                0x000030f8                __ld_r13_to_r21
                0x000030fc                __ld_r13_to_r20
                0x00003100                __ld_r13_to_r19
                0x00003104                __ld_r13_to_r18
                0x00003108                __ld_r13_to_r17
                0x0000310c                __ld_r13_to_r16
                0x00003110                __ld_r13_to_r15
 .text          0x00003118       0x3c c:/arc_gnu/bin/../lib/gcc/arc-elf32/7.3.1/em4_dmips\libgcc.a(_millicodethunk_ret.o)
                0x00003118                __ld_r13_to_r25_ret
                0x0000311c                __ld_r13_to_r24_ret
                0x00003120                __ld_r13_to_r23_ret
                0x00003124                __ld_r13_to_r22_ret
                0x00003128                __ld_r13_to_r21_ret
                0x0000312c                __ld_r13_to_r20_ret
                0x00003130                __ld_r13_to_r19_ret
                0x00003134                __ld_r13_to_r18_ret
                0x00003138                __ld_r13_to_r17_ret
                0x0000313c                __ld_r13_to_r16_ret
                0x00003140                __ld_r13_to_r15_ret
                0x00003144                __ld_r13_to_r14_ret
 .text          0x00003154        0x0 c:/arc_gnu/bin/../lib/gcc/arc-elf32/7.3.1/em4_dmips\libgcc.a(_divdi3.o)
 .text.__divdi3
                0x00003154      0x3c8 c:/arc_gnu/bin/../lib/gcc/arc-elf32/7.3.1/em4_dmips\libgcc.a(_divdi3.o)
                0x00003154                __divdi3
 .text          0x0000351c        0x0 c:/arc_gnu/bin/../lib/gcc/arc-elf32/7.3.1/em4_dmips\libgcc.a(_udivdi3.o)
 .text.__udivdi3
                0x0000351c      0x3ac c:/arc_gnu/bin/../lib/gcc/arc-elf32/7.3.1/em4_dmips\libgcc.a(_udivdi3.o)
                0x0000351c                __udivdi3
                0x000038c8                _e_text = .

.rodata         0x000038c8      0x440
                0x000038c8                _f_rodata = .
                0x000038c8                . = ALIGN (0x4)
                0x000038c8                __CTOR_LIST__ = .
                0x000038c8        0x4 LONG 0x0 (((__CTOR_END__ - __CTOR_LIST__) / 0x4) - 0x2)
 *(SORT_BY_NAME(.ctors*))
                0x000038cc        0x4 LONG 0x0
                0x000038d0                __CTOR_END__ = .
                0x000038d0                . = ALIGN (0x4)
                0x000038d0                __init_array_start = .
 *(SORT_BY_NAME(.init_array*))
                0x000038d0                __init_array_end = .
                0x000038d0                . = ALIGN (0x4)
                0x000038d0                __DTOR_LIST__ = .
                0x000038d0        0x4 LONG 0x0 (((__DTOR_END__ - __DTOR_LIST__) / 0x4) - 0x2)
 *(SORT_BY_NAME(.dtors*))
                0x000038d4        0x4 LONG 0x0
                0x000038d8                __DTOR_END__ = .
 *(.rodata .rodata.* .gnu.linkonce.r.*)
 .rodata.str1.4
                0x000038d8       0x25 C:/Users/jingru/Documents/git/learn_python/generator/test/out/obj_emsk_11/gnu_arcem4/application/./main.o
                                 0x28 (size before relaxing)
 *fill*         0x000038fd        0x3 
 .rodata.str1.4
                0x00003900        0x5 C:/Users/jingru/Documents/git/learn_python/generator/test/out/obj_emsk_11/gnu_arcem4/board/board.o
                                  0x8 (size before relaxing)
 *fill*         0x00003905        0x3 
 .rodata.str1.4
                0x00003908      0x320 C:/Users/jingru/Documents/git/learn_python/generator/test/out/obj_emsk_11/gnu_arcem4/middleware/common/console_io.o
 .rodata.str1.4
                0x00003c28       0x1f C:/Users/jingru/Documents/git/learn_python/generator/test/out/obj_emsk_11/gnu_arcem4/middleware/common/xprintf/xprintf.o
                                 0x20 (size before relaxing)
 *fill*         0x00003c47        0x1 
 .rodata.str1.4
                0x00003c48       0x94 C:/Users/jingru/Documents/git/learn_python/generator/test/out/obj_emsk_11/gnu_arcem4/arc/arc_exception.o
 .rodata        0x00003cdc        0xc C:/Users/jingru/Documents/git/learn_python/generator/test/out/obj_emsk_11/gnu_arcem4/device/ip/designware/uart/dw_uart.o
                0x00003cdc                dw_uart_stopbits
                0x00003cdf                dw_uart_parity
                0x00003ce4                dw_uart_databits
 .rodata        0x00003ce8       0x10 C:/Users/jingru/Documents/git/learn_python/generator/test/out/obj_emsk_11/gnu_arcem4/board/emsk/drivers/ip/designware/gpio/dw_gpio_obj.o
 .rodata        0x00003cf8       0x10 C:/Users/jingru/Documents/git/learn_python/generator/test/out/obj_emsk_11/gnu_arcem4/device/ip/designware/gpio/dw_gpio.o
                0x00003d08                _e_rodata = .

.data           0x80000000       0xac load address 0x00003d08
                0x80000000                _f_data = .
 *(.data .data.* .gnu.linkonce.d.*)
 .data          0x80000000        0x0 C:/Users/jingru/Documents/git/learn_python/generator/test/out/obj_emsk_11/gnu_arcem4/application/./main.o
 .data          0x80000000        0x8 C:/Users/jingru/Documents/git/learn_python/generator/test/out/obj_emsk_11/gnu_arcem4/board/board.o
                0x80000000                s_main_args
 .data          0x80000008        0x0 C:/Users/jingru/Documents/git/learn_python/generator/test/out/obj_emsk_11/gnu_arcem4/arc/startup/arc_cxx_support.o
 .data          0x80000008        0x0 C:/Users/jingru/Documents/git/learn_python/generator/test/out/obj_emsk_11/gnu_arcem4/arc/startup/arc_startup.o
 .data          0x80000008        0x0 C:/Users/jingru/Documents/git/learn_python/generator/test/out/obj_emsk_11/gnu_arcem4/board/emsk/common/emsk_init.o
 .data          0x80000008        0x0 C:/Users/jingru/Documents/git/learn_python/generator/test/out/obj_emsk_11/gnu_arcem4/board/emsk/common/emsk_timer.o
 .data          0x80000008        0x0 C:/Users/jingru/Documents/git/learn_python/generator/test/out/obj_emsk_11/gnu_arcem4/board/emsk/drivers/mux/mux.o
 .data          0x80000008        0x0 C:/Users/jingru/Documents/git/learn_python/generator/test/out/obj_emsk_11/gnu_arcem4/middleware/common/console_io.o
 .data          0x80000008        0x0 C:/Users/jingru/Documents/git/learn_python/generator/test/out/obj_emsk_11/gnu_arcem4/middleware/common/xprintf/xprintf.o
 .data          0x80000008        0x0 C:/Users/jingru/Documents/git/learn_python/generator/test/out/obj_emsk_11/gnu_arcem4/arc/arc_timer.o
 .data          0x80000008        0x0 C:/Users/jingru/Documents/git/learn_python/generator/test/out/obj_emsk_11/gnu_arcem4/arc/arc_cache.o
 .data          0x80000008       0x64 C:/Users/jingru/Documents/git/learn_python/generator/test/out/obj_emsk_11/gnu_arcem4/arc/arc_exception.o
                0x80000008                exc_int_handler_table
 .data          0x8000006c        0x0 C:/Users/jingru/Documents/git/learn_python/generator/test/out/obj_emsk_11/gnu_arcem4/arc/arc_exc_asm.o
 .data          0x8000006c        0x0 C:/Users/jingru/Documents/git/learn_python/generator/test/out/obj_emsk_11/gnu_arcem4/library/clib/embARC_misc.o
 .data          0x8000006c       0x38 C:/Users/jingru/Documents/git/learn_python/generator/test/out/obj_emsk_11/gnu_arcem4/board/emsk/drivers/ip/designware/uart/dw_uart_obj.o
                0x8000006c                dw_uart_0_ctrl
                0x80000088                dw_uart_1_ctrl
 .data          0x800000a4        0x0 C:/Users/jingru/Documents/git/learn_python/generator/test/out/obj_emsk_11/gnu_arcem4/device/ip/designware/uart/dw_uart.o
 .data          0x800000a4        0x0 C:/Users/jingru/Documents/git/learn_python/generator/test/out/obj_emsk_11/gnu_arcem4/board/emsk/common/emsk_gpio.o
 .data          0x800000a4        0x8 C:/Users/jingru/Documents/git/learn_python/generator/test/out/obj_emsk_11/gnu_arcem4/board/emsk/drivers/ip/designware/gpio/dw_gpio_obj.o
 .data          0x800000ac        0x0 C:/Users/jingru/Documents/git/learn_python/generator/test/out/obj_emsk_11/gnu_arcem4/device/ip/designware/gpio/dw_gpio.o
 .data          0x800000ac        0x0 c:/arc_gnu/bin/../lib/gcc/arc-elf32/7.3.1/../../../../arc-elf32/lib/em4_dmips\libc.a(lib_a-memcpy-bs.o)
 .data          0x800000ac        0x0 c:/arc_gnu/bin/../lib/gcc/arc-elf32/7.3.1/../../../../arc-elf32/lib/em4_dmips\libc.a(lib_a-memset-bs.o)
 .data          0x800000ac        0x0 c:/arc_gnu/bin/../lib/gcc/arc-elf32/7.3.1/em4_dmips\libgcc.a(_millicodethunk_st.o)
 .data          0x800000ac        0x0 c:/arc_gnu/bin/../lib/gcc/arc-elf32/7.3.1/em4_dmips\libgcc.a(_millicodethunk_ld.o)
 .data          0x800000ac        0x0 c:/arc_gnu/bin/../lib/gcc/arc-elf32/7.3.1/em4_dmips\libgcc.a(_millicodethunk_ret.o)
 .data          0x800000ac        0x0 c:/arc_gnu/bin/../lib/gcc/arc-elf32/7.3.1/em4_dmips\libgcc.a(_divdi3.o)
 .data          0x800000ac        0x0 c:/arc_gnu/bin/../lib/gcc/arc-elf32/7.3.1/em4_dmips\libgcc.a(_udivdi3.o)
                0x800000ac                _f_sdata = .
                0x800000ac                __SDATA_BEGIN__ = .
 *(.sdata .sdata.* .gnu.linkonce.s.*)
                0x800000ac                _e_sdata = .
                0x800000ac                _e_data = .

.bss            0x800000b0      0x2a0 load address 0x00003db8
                [!provide]                PROVIDE (__sbss_start, .)
                [!provide]                PROVIDE (___sbss_start, .)
                0x800000b0                _f_bss = .
                0x800000b0                _f_sbss = .
 *(.dynsbss)
 *(.sbss .sbss.* .gnu.linkonce.sb.*)
 *(.scommon)
                0x800000b0                _e_sbss = .
                [!provide]                PROVIDE (__sbss_end, .)
                [!provide]                PROVIDE (___sbss_end, .)
 *(.dynbss)
 *(.bss .bss.* .gnu.linkonce.b.*)
 .bss           0x800000b0        0x0 C:/Users/jingru/Documents/git/learn_python/generator/test/out/obj_emsk_11/gnu_arcem4/application/./main.o
 .bss           0x800000b0        0x0 C:/Users/jingru/Documents/git/learn_python/generator/test/out/obj_emsk_11/gnu_arcem4/board/board.o
 .bss           0x800000b0        0x4 C:/Users/jingru/Documents/git/learn_python/generator/test/out/obj_emsk_11/gnu_arcem4/arc/startup/arc_cxx_support.o
                0x800000b0                __dso_handle
 .bss           0x800000b4        0x0 C:/Users/jingru/Documents/git/learn_python/generator/test/out/obj_emsk_11/gnu_arcem4/arc/startup/arc_startup.o
 .bss           0x800000b4        0x0 C:/Users/jingru/Documents/git/learn_python/generator/test/out/obj_emsk_11/gnu_arcem4/board/emsk/common/emsk_init.o
 .bss           0x800000b4       0x14 C:/Users/jingru/Documents/git/learn_python/generator/test/out/obj_emsk_11/gnu_arcem4/board/emsk/common/emsk_timer.o
                0x800000b8                gl_emsk_sys_hz_cnt
                0x800000c4                gl_emsk_ms_cnt
 .bss           0x800000c8        0x4 C:/Users/jingru/Documents/git/learn_python/generator/test/out/obj_emsk_11/gnu_arcem4/board/emsk/drivers/mux/mux.o
 .bss           0x800000cc        0x8 C:/Users/jingru/Documents/git/learn_python/generator/test/out/obj_emsk_11/gnu_arcem4/middleware/common/console_io.o
 .bss           0x800000d4        0x4 C:/Users/jingru/Documents/git/learn_python/generator/test/out/obj_emsk_11/gnu_arcem4/middleware/common/xprintf/xprintf.o
 .bss           0x800000d8        0x0 C:/Users/jingru/Documents/git/learn_python/generator/test/out/obj_emsk_11/gnu_arcem4/arc/arc_timer.o
 .bss           0x800000d8       0x10 C:/Users/jingru/Documents/git/learn_python/generator/test/out/obj_emsk_11/gnu_arcem4/arc/arc_cache.o
 .bss           0x800000e8        0x0 C:/Users/jingru/Documents/git/learn_python/generator/test/out/obj_emsk_11/gnu_arcem4/arc/arc_exception.o
 .bss           0x800000e8        0x0 C:/Users/jingru/Documents/git/learn_python/generator/test/out/obj_emsk_11/gnu_arcem4/arc/arc_exc_asm.o
 .bss           0x800000e8        0x0 C:/Users/jingru/Documents/git/learn_python/generator/test/out/obj_emsk_11/gnu_arcem4/library/clib/embARC_misc.o
 .bss           0x800000e8        0x4 C:/Users/jingru/Documents/git/learn_python/generator/test/out/obj_emsk_11/gnu_arcem4/board/emsk/drivers/ip/designware/uart/dw_uart_obj.o
 .bss           0x800000ec        0x0 C:/Users/jingru/Documents/git/learn_python/generator/test/out/obj_emsk_11/gnu_arcem4/device/ip/designware/uart/dw_uart.o
 .bss           0x800000ec        0xc C:/Users/jingru/Documents/git/learn_python/generator/test/out/obj_emsk_11/gnu_arcem4/board/emsk/common/emsk_gpio.o
 .bss           0x800000f8      0x194 C:/Users/jingru/Documents/git/learn_python/generator/test/out/obj_emsk_11/gnu_arcem4/board/emsk/drivers/ip/designware/gpio/dw_gpio_obj.o
 .bss           0x8000028c        0x0 C:/Users/jingru/Documents/git/learn_python/generator/test/out/obj_emsk_11/gnu_arcem4/device/ip/designware/gpio/dw_gpio.o
 .bss           0x8000028c        0x0 c:/arc_gnu/bin/../lib/gcc/arc-elf32/7.3.1/../../../../arc-elf32/lib/em4_dmips\libc.a(lib_a-memcpy-bs.o)
 .bss           0x8000028c        0x0 c:/arc_gnu/bin/../lib/gcc/arc-elf32/7.3.1/../../../../arc-elf32/lib/em4_dmips\libc.a(lib_a-memset-bs.o)
 .bss           0x8000028c        0x0 c:/arc_gnu/bin/../lib/gcc/arc-elf32/7.3.1/em4_dmips\libgcc.a(_millicodethunk_st.o)
 .bss           0x8000028c        0x0 c:/arc_gnu/bin/../lib/gcc/arc-elf32/7.3.1/em4_dmips\libgcc.a(_millicodethunk_ld.o)
 .bss           0x8000028c        0x0 c:/arc_gnu/bin/../lib/gcc/arc-elf32/7.3.1/em4_dmips\libgcc.a(_millicodethunk_ret.o)
 .bss           0x8000028c        0x0 c:/arc_gnu/bin/../lib/gcc/arc-elf32/7.3.1/em4_dmips\libgcc.a(_divdi3.o)
 .bss           0x8000028c        0x0 c:/arc_gnu/bin/../lib/gcc/arc-elf32/7.3.1/em4_dmips\libgcc.a(_udivdi3.o)
 *(COMMON)
 COMMON         0x8000028c        0x8 C:/Users/jingru/Documents/git/learn_python/generator/test/out/obj_emsk_11/gnu_arcem4/middleware/common/xprintf/xprintf.o
                0x8000028c                xfunc_in
                0x80000290                xfunc_out
 COMMON         0x80000294        0x4 C:/Users/jingru/Documents/git/learn_python/generator/test/out/obj_emsk_11/gnu_arcem4/arc/arc_exception.o
                0x80000294                exc_nest_count
 COMMON         0x80000298       0xb8 C:/Users/jingru/Documents/git/learn_python/generator/test/out/obj_emsk_11/gnu_arcem4/board/emsk/drivers/ip/designware/uart/dw_uart_obj.o
                0x80000298                dw_uart_0
                0x800002f4                dw_uart_1
                0x80000350                _e_bss = .

.stack          0x80000350     0x2000 load address 0x00003db4
                0x80000350                . = ALIGN (0x4)
                0x80000350                _f_stack = .
                0x80002350                . = (. + 0x2000)
 *fill*         0x80000350     0x2000 
                0x80002350                _e_stack = .

.heap           0x80002350     0x2000 load address 0x00003db4
                0x80002350                . = ALIGN (0x4)
                0x80002350                __start_heap = .
                0x80002350                _f_heap = .
                0x80004350                . = (. + 0x2000)
 *fill*         0x80002350     0x2000 
                0x80004350                _e_heap = .
                0x80004350                __end_heap = .
                0x00000800                _load_addr_text = LOADADDR (.text)
                0x000038c8                _load_addr_rodata = LOADADDR (.rodata)
                0x00003d08                _load_addr_data = LOADADDR (.data)
LOAD C:/Users/jingru/Documents/git/learn_python/generator/test/out/obj_emsk_11/gnu_arcem4/application/./main.o
LOAD C:/Users/jingru/Documents/git/learn_python/generator/test/out/obj_emsk_11/gnu_arcem4/board/board.o
LOAD C:/Users/jingru/Documents/git/learn_python/generator/test/out/obj_emsk_11/gnu_arcem4/arc/startup/arc_cxx_support.o
LOAD C:/Users/jingru/Documents/git/learn_python/generator/test/out/obj_emsk_11/gnu_arcem4/arc/startup/arc_startup.o
START GROUP
LOAD C:/Users/jingru/Documents/git/learn_python/generator/test/out/obj_emsk_11/gnu_arcem4/libembarc.a
LOAD c:/arc_gnu/bin/../lib/gcc/arc-elf32/7.3.1/../../../../arc-elf32/lib/em4_dmips\libm.a
LOAD c:/arc_gnu/bin/../lib/gcc/arc-elf32/7.3.1/../../../../arc-elf32/lib/em4_dmips\libc.a
LOAD c:/arc_gnu/bin/../lib/gcc/arc-elf32/7.3.1/em4_dmips\libgcc.a
END GROUP
START GROUP
LOAD c:/arc_gnu/bin/../lib/gcc/arc-elf32/7.3.1/em4_dmips\libgcc.a
LOAD c:/arc_gnu/bin/../lib/gcc/arc-elf32/7.3.1/../../../../arc-elf32/lib/em4_dmips\libc.a
LOAD c:/arc_gnu/bin/../lib/gcc/arc-elf32/7.3.1/../../../../arc-elf32/lib/em4_dmips\libnosys.a
END GROUP
OUTPUT(C:/Users/jingru/Documents/git/learn_python/generator/test/out/obj_emsk_11/gnu_arcem4/test_gnu_arcem4.elf elf32-littlearc)

.debug_info     0x00000000     0xb4d2
 .debug_info    0x00000000      0xb43 C:/Users/jingru/Documents/git/learn_python/generator/test/out/obj_emsk_11/gnu_arcem4/application/./main.o
 .debug_info    0x00000b43      0xcb5 C:/Users/jingru/Documents/git/learn_python/generator/test/out/obj_emsk_11/gnu_arcem4/board/board.o
 .debug_info    0x000017f8      0x1cc C:/Users/jingru/Documents/git/learn_python/generator/test/out/obj_emsk_11/gnu_arcem4/arc/startup/arc_cxx_support.o
 .debug_info    0x000019c4       0x26 C:/Users/jingru/Documents/git/learn_python/generator/test/out/obj_emsk_11/gnu_arcem4/arc/startup/arc_startup.o
 .debug_info    0x000019ea      0x300 C:/Users/jingru/Documents/git/learn_python/generator/test/out/obj_emsk_11/gnu_arcem4/board/emsk/common/emsk_init.o
 .debug_info    0x00001cea      0x581 C:/Users/jingru/Documents/git/learn_python/generator/test/out/obj_emsk_11/gnu_arcem4/board/emsk/common/emsk_timer.o
 .debug_info    0x0000226b      0x5a9 C:/Users/jingru/Documents/git/learn_python/generator/test/out/obj_emsk_11/gnu_arcem4/board/emsk/drivers/mux/mux.o
 .debug_info    0x00002814      0xf66 C:/Users/jingru/Documents/git/learn_python/generator/test/out/obj_emsk_11/gnu_arcem4/middleware/common/console_io.o
 .debug_info    0x0000377a      0x70c C:/Users/jingru/Documents/git/learn_python/generator/test/out/obj_emsk_11/gnu_arcem4/middleware/common/xprintf/xprintf.o
 .debug_info    0x00003e86      0x27a C:/Users/jingru/Documents/git/learn_python/generator/test/out/obj_emsk_11/gnu_arcem4/arc/arc_timer.o
 .debug_info    0x00004100      0x7c7 C:/Users/jingru/Documents/git/learn_python/generator/test/out/obj_emsk_11/gnu_arcem4/arc/arc_cache.o
 .debug_info    0x000048c7      0xd32 C:/Users/jingru/Documents/git/learn_python/generator/test/out/obj_emsk_11/gnu_arcem4/arc/arc_exception.o
 .debug_info    0x000055f9       0x26 C:/Users/jingru/Documents/git/learn_python/generator/test/out/obj_emsk_11/gnu_arcem4/arc/arc_exc_asm.o
 .debug_info    0x0000561f      0x947 C:/Users/jingru/Documents/git/learn_python/generator/test/out/obj_emsk_11/gnu_arcem4/library/clib/embARC_misc.o
 .debug_info    0x00005f66      0xaac C:/Users/jingru/Documents/git/learn_python/generator/test/out/obj_emsk_11/gnu_arcem4/board/emsk/drivers/ip/designware/uart/dw_uart_obj.o
 .debug_info    0x00006a12     0x1f54 C:/Users/jingru/Documents/git/learn_python/generator/test/out/obj_emsk_11/gnu_arcem4/device/ip/designware/uart/dw_uart.o
 .debug_info    0x00008966      0x7fd C:/Users/jingru/Documents/git/learn_python/generator/test/out/obj_emsk_11/gnu_arcem4/board/emsk/common/emsk_gpio.o
 .debug_info    0x00009163     0x1021 C:/Users/jingru/Documents/git/learn_python/generator/test/out/obj_emsk_11/gnu_arcem4/board/emsk/drivers/ip/designware/gpio/dw_gpio_obj.o
 .debug_info    0x0000a184     0x134e C:/Users/jingru/Documents/git/learn_python/generator/test/out/obj_emsk_11/gnu_arcem4/device/ip/designware/gpio/dw_gpio.o

.debug_abbrev   0x00000000     0x2c9d
 .debug_abbrev  0x00000000      0x22a C:/Users/jingru/Documents/git/learn_python/generator/test/out/obj_emsk_11/gnu_arcem4/application/./main.o
 .debug_abbrev  0x0000022a      0x2ef C:/Users/jingru/Documents/git/learn_python/generator/test/out/obj_emsk_11/gnu_arcem4/board/board.o
 .debug_abbrev  0x00000519      0x15c C:/Users/jingru/Documents/git/learn_python/generator/test/out/obj_emsk_11/gnu_arcem4/arc/startup/arc_cxx_support.o
 .debug_abbrev  0x00000675       0x14 C:/Users/jingru/Documents/git/learn_python/generator/test/out/obj_emsk_11/gnu_arcem4/arc/startup/arc_startup.o
 .debug_abbrev  0x00000689      0x174 C:/Users/jingru/Documents/git/learn_python/generator/test/out/obj_emsk_11/gnu_arcem4/board/emsk/common/emsk_init.o
 .debug_abbrev  0x000007fd      0x2b7 C:/Users/jingru/Documents/git/learn_python/generator/test/out/obj_emsk_11/gnu_arcem4/board/emsk/common/emsk_timer.o
 .debug_abbrev  0x00000ab4      0x29f C:/Users/jingru/Documents/git/learn_python/generator/test/out/obj_emsk_11/gnu_arcem4/board/emsk/drivers/mux/mux.o
 .debug_abbrev  0x00000d53      0x320 C:/Users/jingru/Documents/git/learn_python/generator/test/out/obj_emsk_11/gnu_arcem4/middleware/common/console_io.o
 .debug_abbrev  0x00001073      0x28f C:/Users/jingru/Documents/git/learn_python/generator/test/out/obj_emsk_11/gnu_arcem4/middleware/common/xprintf/xprintf.o
 .debug_abbrev  0x00001302      0x122 C:/Users/jingru/Documents/git/learn_python/generator/test/out/obj_emsk_11/gnu_arcem4/arc/arc_timer.o
 .debug_abbrev  0x00001424      0x265 C:/Users/jingru/Documents/git/learn_python/generator/test/out/obj_emsk_11/gnu_arcem4/arc/arc_cache.o
 .debug_abbrev  0x00001689      0x412 C:/Users/jingru/Documents/git/learn_python/generator/test/out/obj_emsk_11/gnu_arcem4/arc/arc_exception.o
 .debug_abbrev  0x00001a9b       0x14 C:/Users/jingru/Documents/git/learn_python/generator/test/out/obj_emsk_11/gnu_arcem4/arc/arc_exc_asm.o
 .debug_abbrev  0x00001aaf      0x1a7 C:/Users/jingru/Documents/git/learn_python/generator/test/out/obj_emsk_11/gnu_arcem4/library/clib/embARC_misc.o
 .debug_abbrev  0x00001c56      0x29c C:/Users/jingru/Documents/git/learn_python/generator/test/out/obj_emsk_11/gnu_arcem4/board/emsk/drivers/ip/designware/uart/dw_uart_obj.o
 .debug_abbrev  0x00001ef2      0x4d9 C:/Users/jingru/Documents/git/learn_python/generator/test/out/obj_emsk_11/gnu_arcem4/device/ip/designware/uart/dw_uart.o
 .debug_abbrev  0x000023cb      0x232 C:/Users/jingru/Documents/git/learn_python/generator/test/out/obj_emsk_11/gnu_arcem4/board/emsk/common/emsk_gpio.o
 .debug_abbrev  0x000025fd      0x2ff C:/Users/jingru/Documents/git/learn_python/generator/test/out/obj_emsk_11/gnu_arcem4/board/emsk/drivers/ip/designware/gpio/dw_gpio_obj.o
 .debug_abbrev  0x000028fc      0x3a1 C:/Users/jingru/Documents/git/learn_python/generator/test/out/obj_emsk_11/gnu_arcem4/device/ip/designware/gpio/dw_gpio.o

.debug_aranges  0x00000000      0x260
 .debug_aranges
                0x00000000       0x20 C:/Users/jingru/Documents/git/learn_python/generator/test/out/obj_emsk_11/gnu_arcem4/application/./main.o
 .debug_aranges
                0x00000020       0x20 C:/Users/jingru/Documents/git/learn_python/generator/test/out/obj_emsk_11/gnu_arcem4/board/board.o
 .debug_aranges
                0x00000040       0x20 C:/Users/jingru/Documents/git/learn_python/generator/test/out/obj_emsk_11/gnu_arcem4/arc/startup/arc_cxx_support.o
 .debug_aranges
                0x00000060       0x20 C:/Users/jingru/Documents/git/learn_python/generator/test/out/obj_emsk_11/gnu_arcem4/arc/startup/arc_startup.o
 .debug_aranges
                0x00000080       0x20 C:/Users/jingru/Documents/git/learn_python/generator/test/out/obj_emsk_11/gnu_arcem4/board/emsk/common/emsk_init.o
 .debug_aranges
                0x000000a0       0x20 C:/Users/jingru/Documents/git/learn_python/generator/test/out/obj_emsk_11/gnu_arcem4/board/emsk/common/emsk_timer.o
 .debug_aranges
                0x000000c0       0x20 C:/Users/jingru/Documents/git/learn_python/generator/test/out/obj_emsk_11/gnu_arcem4/board/emsk/drivers/mux/mux.o
 .debug_aranges
                0x000000e0       0x20 C:/Users/jingru/Documents/git/learn_python/generator/test/out/obj_emsk_11/gnu_arcem4/middleware/common/console_io.o
 .debug_aranges
                0x00000100       0x20 C:/Users/jingru/Documents/git/learn_python/generator/test/out/obj_emsk_11/gnu_arcem4/middleware/common/xprintf/xprintf.o
 .debug_aranges
                0x00000120       0x20 C:/Users/jingru/Documents/git/learn_python/generator/test/out/obj_emsk_11/gnu_arcem4/arc/arc_timer.o
 .debug_aranges
                0x00000140       0x20 C:/Users/jingru/Documents/git/learn_python/generator/test/out/obj_emsk_11/gnu_arcem4/arc/arc_cache.o
 .debug_aranges
                0x00000160       0x20 C:/Users/jingru/Documents/git/learn_python/generator/test/out/obj_emsk_11/gnu_arcem4/arc/arc_exception.o
 .debug_aranges
                0x00000180       0x20 C:/Users/jingru/Documents/git/learn_python/generator/test/out/obj_emsk_11/gnu_arcem4/arc/arc_exc_asm.o
 .debug_aranges
                0x000001a0       0x20 C:/Users/jingru/Documents/git/learn_python/generator/test/out/obj_emsk_11/gnu_arcem4/library/clib/embARC_misc.o
 .debug_aranges
                0x000001c0       0x20 C:/Users/jingru/Documents/git/learn_python/generator/test/out/obj_emsk_11/gnu_arcem4/board/emsk/drivers/ip/designware/uart/dw_uart_obj.o
 .debug_aranges
                0x000001e0       0x20 C:/Users/jingru/Documents/git/learn_python/generator/test/out/obj_emsk_11/gnu_arcem4/device/ip/designware/uart/dw_uart.o
 .debug_aranges
                0x00000200       0x20 C:/Users/jingru/Documents/git/learn_python/generator/test/out/obj_emsk_11/gnu_arcem4/board/emsk/common/emsk_gpio.o
 .debug_aranges
                0x00000220       0x20 C:/Users/jingru/Documents/git/learn_python/generator/test/out/obj_emsk_11/gnu_arcem4/board/emsk/drivers/ip/designware/gpio/dw_gpio_obj.o
 .debug_aranges
                0x00000240       0x20 C:/Users/jingru/Documents/git/learn_python/generator/test/out/obj_emsk_11/gnu_arcem4/device/ip/designware/gpio/dw_gpio.o

.debug_ranges   0x00000000      0x278
 .debug_ranges  0x00000000       0x10 C:/Users/jingru/Documents/git/learn_python/generator/test/out/obj_emsk_11/gnu_arcem4/application/./main.o
 .debug_ranges  0x00000010       0x18 C:/Users/jingru/Documents/git/learn_python/generator/test/out/obj_emsk_11/gnu_arcem4/arc/startup/arc_cxx_support.o
 .debug_ranges  0x00000028       0x18 C:/Users/jingru/Documents/git/learn_python/generator/test/out/obj_emsk_11/gnu_arcem4/board/emsk/drivers/mux/mux.o
 .debug_ranges  0x00000040       0x18 C:/Users/jingru/Documents/git/learn_python/generator/test/out/obj_emsk_11/gnu_arcem4/middleware/common/console_io.o
 .debug_ranges  0x00000058       0x18 C:/Users/jingru/Documents/git/learn_python/generator/test/out/obj_emsk_11/gnu_arcem4/middleware/common/xprintf/xprintf.o
 .debug_ranges  0x00000070       0x18 C:/Users/jingru/Documents/git/learn_python/generator/test/out/obj_emsk_11/gnu_arcem4/arc/arc_exception.o
 .debug_ranges  0x00000088       0xd8 C:/Users/jingru/Documents/git/learn_python/generator/test/out/obj_emsk_11/gnu_arcem4/device/ip/designware/uart/dw_uart.o
 .debug_ranges  0x00000160       0x90 C:/Users/jingru/Documents/git/learn_python/generator/test/out/obj_emsk_11/gnu_arcem4/board/emsk/drivers/ip/designware/gpio/dw_gpio_obj.o
 .debug_ranges  0x000001f0       0x88 C:/Users/jingru/Documents/git/learn_python/generator/test/out/obj_emsk_11/gnu_arcem4/device/ip/designware/gpio/dw_gpio.o

.debug_line     0x00000000     0x3146
 .debug_line    0x00000000      0x2a0 C:/Users/jingru/Documents/git/learn_python/generator/test/out/obj_emsk_11/gnu_arcem4/application/./main.o
 .debug_line    0x000002a0      0x3a0 C:/Users/jingru/Documents/git/learn_python/generator/test/out/obj_emsk_11/gnu_arcem4/board/board.o
 .debug_line    0x00000640       0xa7 C:/Users/jingru/Documents/git/learn_python/generator/test/out/obj_emsk_11/gnu_arcem4/arc/startup/arc_cxx_support.o
 .debug_line    0x000006e7       0xe6 C:/Users/jingru/Documents/git/learn_python/generator/test/out/obj_emsk_11/gnu_arcem4/arc/startup/arc_startup.o
 .debug_line    0x000007cd      0x236 C:/Users/jingru/Documents/git/learn_python/generator/test/out/obj_emsk_11/gnu_arcem4/board/emsk/common/emsk_init.o
 .debug_line    0x00000a03      0x212 C:/Users/jingru/Documents/git/learn_python/generator/test/out/obj_emsk_11/gnu_arcem4/board/emsk/common/emsk_timer.o
 .debug_line    0x00000c15      0x2be C:/Users/jingru/Documents/git/learn_python/generator/test/out/obj_emsk_11/gnu_arcem4/board/emsk/drivers/mux/mux.o
 .debug_line    0x00000ed3      0x37d C:/Users/jingru/Documents/git/learn_python/generator/test/out/obj_emsk_11/gnu_arcem4/middleware/common/console_io.o
 .debug_line    0x00001250      0x28f C:/Users/jingru/Documents/git/learn_python/generator/test/out/obj_emsk_11/gnu_arcem4/middleware/common/xprintf/xprintf.o
 .debug_line    0x000014df      0x159 C:/Users/jingru/Documents/git/learn_python/generator/test/out/obj_emsk_11/gnu_arcem4/arc/arc_timer.o
 .debug_line    0x00001638      0x312 C:/Users/jingru/Documents/git/learn_python/generator/test/out/obj_emsk_11/gnu_arcem4/arc/arc_cache.o
 .debug_line    0x0000194a      0x37f C:/Users/jingru/Documents/git/learn_python/generator/test/out/obj_emsk_11/gnu_arcem4/arc/arc_exception.o
 .debug_line    0x00001cc9       0xd4 C:/Users/jingru/Documents/git/learn_python/generator/test/out/obj_emsk_11/gnu_arcem4/arc/arc_exc_asm.o
 .debug_line    0x00001d9d      0x1c8 C:/Users/jingru/Documents/git/learn_python/generator/test/out/obj_emsk_11/gnu_arcem4/library/clib/embARC_misc.o
 .debug_line    0x00001f65      0x341 C:/Users/jingru/Documents/git/learn_python/generator/test/out/obj_emsk_11/gnu_arcem4/board/emsk/drivers/ip/designware/uart/dw_uart_obj.o
 .debug_line    0x000022a6      0x524 C:/Users/jingru/Documents/git/learn_python/generator/test/out/obj_emsk_11/gnu_arcem4/device/ip/designware/uart/dw_uart.o
 .debug_line    0x000027ca      0x229 C:/Users/jingru/Documents/git/learn_python/generator/test/out/obj_emsk_11/gnu_arcem4/board/emsk/common/emsk_gpio.o
 .debug_line    0x000029f3      0x369 C:/Users/jingru/Documents/git/learn_python/generator/test/out/obj_emsk_11/gnu_arcem4/board/emsk/drivers/ip/designware/gpio/dw_gpio_obj.o
 .debug_line    0x00002d5c      0x3ea C:/Users/jingru/Documents/git/learn_python/generator/test/out/obj_emsk_11/gnu_arcem4/device/ip/designware/gpio/dw_gpio.o

.debug_str      0x00000000     0x26a9
 .debug_str     0x00000000      0x715 C:/Users/jingru/Documents/git/learn_python/generator/test/out/obj_emsk_11/gnu_arcem4/application/./main.o
                                0x7d1 (size before relaxing)
 .debug_str     0x00000715       0xcc C:/Users/jingru/Documents/git/learn_python/generator/test/out/obj_emsk_11/gnu_arcem4/board/board.o
                                0x89b (size before relaxing)
 .debug_str     0x000007e1      0x15e C:/Users/jingru/Documents/git/learn_python/generator/test/out/obj_emsk_11/gnu_arcem4/arc/startup/arc_cxx_support.o
                                0x248 (size before relaxing)
 .debug_str     0x0000093f       0x1d C:/Users/jingru/Documents/git/learn_python/generator/test/out/obj_emsk_11/gnu_arcem4/arc/startup/arc_startup.o
                                 0x57 (size before relaxing)
 .debug_str     0x0000095c       0x81 C:/Users/jingru/Documents/git/learn_python/generator/test/out/obj_emsk_11/gnu_arcem4/board/emsk/common/emsk_init.o
                                0x441 (size before relaxing)
 .debug_str     0x000009dd      0x180 C:/Users/jingru/Documents/git/learn_python/generator/test/out/obj_emsk_11/gnu_arcem4/board/emsk/common/emsk_timer.o
                                0x559 (size before relaxing)
 .debug_str     0x00000b5d      0x1ed C:/Users/jingru/Documents/git/learn_python/generator/test/out/obj_emsk_11/gnu_arcem4/board/emsk/drivers/mux/mux.o
                                0x5c1 (size before relaxing)
 .debug_str     0x00000d4a      0x198 C:/Users/jingru/Documents/git/learn_python/generator/test/out/obj_emsk_11/gnu_arcem4/middleware/common/console_io.o
                                0x9ed (size before relaxing)
 .debug_str     0x00000ee2       0xd9 C:/Users/jingru/Documents/git/learn_python/generator/test/out/obj_emsk_11/gnu_arcem4/middleware/common/xprintf/xprintf.o
                                0x22c (size before relaxing)
 .debug_str     0x00000fbb       0x58 C:/Users/jingru/Documents/git/learn_python/generator/test/out/obj_emsk_11/gnu_arcem4/arc/arc_timer.o
                                0x231 (size before relaxing)
 .debug_str     0x00001013      0x24e C:/Users/jingru/Documents/git/learn_python/generator/test/out/obj_emsk_11/gnu_arcem4/arc/arc_cache.o
                                0x45e (size before relaxing)
 .debug_str     0x00001261      0x2f5 C:/Users/jingru/Documents/git/learn_python/generator/test/out/obj_emsk_11/gnu_arcem4/arc/arc_exception.o
                                0x5f7 (size before relaxing)
 .debug_str     0x00001556        0xe C:/Users/jingru/Documents/git/learn_python/generator/test/out/obj_emsk_11/gnu_arcem4/arc/arc_exc_asm.o
                                 0x57 (size before relaxing)
 .debug_str     0x00001564       0x53 C:/Users/jingru/Documents/git/learn_python/generator/test/out/obj_emsk_11/gnu_arcem4/library/clib/embARC_misc.o
                                0x61f (size before relaxing)
 .debug_str     0x000015b7      0x2b7 C:/Users/jingru/Documents/git/learn_python/generator/test/out/obj_emsk_11/gnu_arcem4/board/emsk/drivers/ip/designware/uart/dw_uart_obj.o
                                0x7b5 (size before relaxing)
 .debug_str     0x0000186e      0x3af C:/Users/jingru/Documents/git/learn_python/generator/test/out/obj_emsk_11/gnu_arcem4/device/ip/designware/uart/dw_uart.o
                                0xd02 (size before relaxing)
 .debug_str     0x00001c1d      0x2c2 C:/Users/jingru/Documents/git/learn_python/generator/test/out/obj_emsk_11/gnu_arcem4/board/emsk/common/emsk_gpio.o
                                0x6f2 (size before relaxing)
 .debug_str     0x00001edf      0x427 C:/Users/jingru/Documents/git/learn_python/generator/test/out/obj_emsk_11/gnu_arcem4/board/emsk/drivers/ip/designware/gpio/dw_gpio_obj.o
                                0x925 (size before relaxing)
 .debug_str     0x00002306      0x3a3 C:/Users/jingru/Documents/git/learn_python/generator/test/out/obj_emsk_11/gnu_arcem4/device/ip/designware/gpio/dw_gpio.o
                                0x910 (size before relaxing)

.comment        0x00000000       0x42
 .comment       0x00000000       0x42 C:/Users/jingru/Documents/git/learn_python/generator/test/out/obj_emsk_11/gnu_arcem4/application/./main.o
                                 0x43 (size before relaxing)
 .comment       0x00000042       0x43 C:/Users/jingru/Documents/git/learn_python/generator/test/out/obj_emsk_11/gnu_arcem4/board/board.o
 .comment       0x00000042       0x43 C:/Users/jingru/Documents/git/learn_python/generator/test/out/obj_emsk_11/gnu_arcem4/arc/startup/arc_cxx_support.o
 .comment       0x00000042       0x43 C:/Users/jingru/Documents/git/learn_python/generator/test/out/obj_emsk_11/gnu_arcem4/board/emsk/common/emsk_init.o
 .comment       0x00000042       0x43 C:/Users/jingru/Documents/git/learn_python/generator/test/out/obj_emsk_11/gnu_arcem4/board/emsk/common/emsk_timer.o
 .comment       0x00000042       0x43 C:/Users/jingru/Documents/git/learn_python/generator/test/out/obj_emsk_11/gnu_arcem4/board/emsk/drivers/mux/mux.o
 .comment       0x00000042       0x43 C:/Users/jingru/Documents/git/learn_python/generator/test/out/obj_emsk_11/gnu_arcem4/middleware/common/console_io.o
 .comment       0x00000042       0x43 C:/Users/jingru/Documents/git/learn_python/generator/test/out/obj_emsk_11/gnu_arcem4/middleware/common/xprintf/xprintf.o
 .comment       0x00000042       0x43 C:/Users/jingru/Documents/git/learn_python/generator/test/out/obj_emsk_11/gnu_arcem4/arc/arc_timer.o
 .comment       0x00000042       0x43 C:/Users/jingru/Documents/git/learn_python/generator/test/out/obj_emsk_11/gnu_arcem4/arc/arc_cache.o
 .comment       0x00000042       0x43 C:/Users/jingru/Documents/git/learn_python/generator/test/out/obj_emsk_11/gnu_arcem4/arc/arc_exception.o
 .comment       0x00000042       0x43 C:/Users/jingru/Documents/git/learn_python/generator/test/out/obj_emsk_11/gnu_arcem4/library/clib/embARC_misc.o
 .comment       0x00000042       0x43 C:/Users/jingru/Documents/git/learn_python/generator/test/out/obj_emsk_11/gnu_arcem4/board/emsk/drivers/ip/designware/uart/dw_uart_obj.o
 .comment       0x00000042       0x43 C:/Users/jingru/Documents/git/learn_python/generator/test/out/obj_emsk_11/gnu_arcem4/device/ip/designware/uart/dw_uart.o
 .comment       0x00000042       0x43 C:/Users/jingru/Documents/git/learn_python/generator/test/out/obj_emsk_11/gnu_arcem4/board/emsk/common/emsk_gpio.o
 .comment       0x00000042       0x43 C:/Users/jingru/Documents/git/learn_python/generator/test/out/obj_emsk_11/gnu_arcem4/board/emsk/drivers/ip/designware/gpio/dw_gpio_obj.o
 .comment       0x00000042       0x43 C:/Users/jingru/Documents/git/learn_python/generator/test/out/obj_emsk_11/gnu_arcem4/device/ip/designware/gpio/dw_gpio.o

.note.GNU-stack
                0x00000000        0x0
 .note.GNU-stack
                0x00000000        0x0 C:/Users/jingru/Documents/git/learn_python/generator/test/out/obj_emsk_11/gnu_arcem4/application/./main.o
 .note.GNU-stack
                0x00000000        0x0 C:/Users/jingru/Documents/git/learn_python/generator/test/out/obj_emsk_11/gnu_arcem4/board/board.o
 .note.GNU-stack
                0x00000000        0x0 C:/Users/jingru/Documents/git/learn_python/generator/test/out/obj_emsk_11/gnu_arcem4/arc/startup/arc_cxx_support.o
 .note.GNU-stack
                0x00000000        0x0 C:/Users/jingru/Documents/git/learn_python/generator/test/out/obj_emsk_11/gnu_arcem4/board/emsk/common/emsk_init.o
 .note.GNU-stack
                0x00000000        0x0 C:/Users/jingru/Documents/git/learn_python/generator/test/out/obj_emsk_11/gnu_arcem4/board/emsk/common/emsk_timer.o
 .note.GNU-stack
                0x00000000        0x0 C:/Users/jingru/Documents/git/learn_python/generator/test/out/obj_emsk_11/gnu_arcem4/board/emsk/drivers/mux/mux.o
 .note.GNU-stack
                0x00000000        0x0 C:/Users/jingru/Documents/git/learn_python/generator/test/out/obj_emsk_11/gnu_arcem4/middleware/common/console_io.o
 .note.GNU-stack
                0x00000000        0x0 C:/Users/jingru/Documents/git/learn_python/generator/test/out/obj_emsk_11/gnu_arcem4/middleware/common/xprintf/xprintf.o
 .note.GNU-stack
                0x00000000        0x0 C:/Users/jingru/Documents/git/learn_python/generator/test/out/obj_emsk_11/gnu_arcem4/arc/arc_timer.o
 .note.GNU-stack
                0x00000000        0x0 C:/Users/jingru/Documents/git/learn_python/generator/test/out/obj_emsk_11/gnu_arcem4/arc/arc_cache.o
 .note.GNU-stack
                0x00000000        0x0 C:/Users/jingru/Documents/git/learn_python/generator/test/out/obj_emsk_11/gnu_arcem4/arc/arc_exception.o
 .note.GNU-stack
                0x00000000        0x0 C:/Users/jingru/Documents/git/learn_python/generator/test/out/obj_emsk_11/gnu_arcem4/library/clib/embARC_misc.o
 .note.GNU-stack
                0x00000000        0x0 C:/Users/jingru/Documents/git/learn_python/generator/test/out/obj_emsk_11/gnu_arcem4/board/emsk/drivers/ip/designware/uart/dw_uart_obj.o
 .note.GNU-stack
                0x00000000        0x0 C:/Users/jingru/Documents/git/learn_python/generator/test/out/obj_emsk_11/gnu_arcem4/device/ip/designware/uart/dw_uart.o
 .note.GNU-stack
                0x00000000        0x0 C:/Users/jingru/Documents/git/learn_python/generator/test/out/obj_emsk_11/gnu_arcem4/board/emsk/common/emsk_gpio.o
 .note.GNU-stack
                0x00000000        0x0 C:/Users/jingru/Documents/git/learn_python/generator/test/out/obj_emsk_11/gnu_arcem4/board/emsk/drivers/ip/designware/gpio/dw_gpio_obj.o
 .note.GNU-stack
                0x00000000        0x0 C:/Users/jingru/Documents/git/learn_python/generator/test/out/obj_emsk_11/gnu_arcem4/device/ip/designware/gpio/dw_gpio.o
 .note.GNU-stack
                0x00000000        0x0 c:/arc_gnu/bin/../lib/gcc/arc-elf32/7.3.1/em4_dmips\libgcc.a(_divdi3.o)
 .note.GNU-stack
                0x00000000        0x0 c:/arc_gnu/bin/../lib/gcc/arc-elf32/7.3.1/em4_dmips\libgcc.a(_udivdi3.o)

.ARC.attributes
                0x00000000       0x3a
 .ARC.attributes
                0x00000000       0x23 C:/Users/jingru/Documents/git/learn_python/generator/test/out/obj_emsk_11/gnu_arcem4/application/./main.o
 .ARC.attributes
                0x00000023       0x23 C:/Users/jingru/Documents/git/learn_python/generator/test/out/obj_emsk_11/gnu_arcem4/board/board.o
 .ARC.attributes
                0x00000046       0x26 C:/Users/jingru/Documents/git/learn_python/generator/test/out/obj_emsk_11/gnu_arcem4/arc/startup/arc_cxx_support.o
 .ARC.attributes
                0x0000006c       0x1f C:/Users/jingru/Documents/git/learn_python/generator/test/out/obj_emsk_11/gnu_arcem4/arc/startup/arc_startup.o
 .ARC.attributes
                0x0000008b       0x23 C:/Users/jingru/Documents/git/learn_python/generator/test/out/obj_emsk_11/gnu_arcem4/board/emsk/common/emsk_init.o
 .ARC.attributes
                0x000000ae       0x2d C:/Users/jingru/Documents/git/learn_python/generator/test/out/obj_emsk_11/gnu_arcem4/board/emsk/common/emsk_timer.o
 .ARC.attributes
                0x000000db       0x26 C:/Users/jingru/Documents/git/learn_python/generator/test/out/obj_emsk_11/gnu_arcem4/board/emsk/drivers/mux/mux.o
 .ARC.attributes
                0x00000101       0x23 C:/Users/jingru/Documents/git/learn_python/generator/test/out/obj_emsk_11/gnu_arcem4/middleware/common/console_io.o
 .ARC.attributes
                0x00000124       0x2d C:/Users/jingru/Documents/git/learn_python/generator/test/out/obj_emsk_11/gnu_arcem4/middleware/common/xprintf/xprintf.o
 .ARC.attributes
                0x00000151       0x26 C:/Users/jingru/Documents/git/learn_python/generator/test/out/obj_emsk_11/gnu_arcem4/arc/arc_timer.o
 .ARC.attributes
                0x00000177       0x26 C:/Users/jingru/Documents/git/learn_python/generator/test/out/obj_emsk_11/gnu_arcem4/arc/arc_cache.o
 .ARC.attributes
                0x0000019d       0x26 C:/Users/jingru/Documents/git/learn_python/generator/test/out/obj_emsk_11/gnu_arcem4/arc/arc_exception.o
 .ARC.attributes
                0x000001c3       0x22 C:/Users/jingru/Documents/git/learn_python/generator/test/out/obj_emsk_11/gnu_arcem4/arc/arc_exc_asm.o
 .ARC.attributes
                0x000001e5       0x23 C:/Users/jingru/Documents/git/learn_python/generator/test/out/obj_emsk_11/gnu_arcem4/library/clib/embARC_misc.o
 .ARC.attributes
                0x00000208       0x23 C:/Users/jingru/Documents/git/learn_python/generator/test/out/obj_emsk_11/gnu_arcem4/board/emsk/drivers/ip/designware/uart/dw_uart_obj.o
 .ARC.attributes
                0x0000022b       0x2e C:/Users/jingru/Documents/git/learn_python/generator/test/out/obj_emsk_11/gnu_arcem4/device/ip/designware/uart/dw_uart.o
 .ARC.attributes
                0x00000259       0x23 C:/Users/jingru/Documents/git/learn_python/generator/test/out/obj_emsk_11/gnu_arcem4/board/emsk/common/emsk_gpio.o
 .ARC.attributes
                0x0000027c       0x26 C:/Users/jingru/Documents/git/learn_python/generator/test/out/obj_emsk_11/gnu_arcem4/board/emsk/drivers/ip/designware/gpio/dw_gpio_obj.o
 .ARC.attributes
                0x000002a2       0x28 C:/Users/jingru/Documents/git/learn_python/generator/test/out/obj_emsk_11/gnu_arcem4/device/ip/designware/gpio/dw_gpio.o
 .ARC.attributes
                0x000002ca       0x22 c:/arc_gnu/bin/../lib/gcc/arc-elf32/7.3.1/../../../../arc-elf32/lib/em4_dmips\libc.a(lib_a-memcpy-bs.o)
 .ARC.attributes
                0x000002ec       0x22 c:/arc_gnu/bin/../lib/gcc/arc-elf32/7.3.1/../../../../arc-elf32/lib/em4_dmips\libc.a(lib_a-memset-bs.o)
 .ARC.attributes
                0x0000030e       0x1f c:/arc_gnu/bin/../lib/gcc/arc-elf32/7.3.1/em4_dmips\libgcc.a(_millicodethunk_st.o)
 .ARC.attributes
                0x0000032d       0x1f c:/arc_gnu/bin/../lib/gcc/arc-elf32/7.3.1/em4_dmips\libgcc.a(_millicodethunk_ld.o)
 .ARC.attributes
                0x0000034c       0x1f c:/arc_gnu/bin/../lib/gcc/arc-elf32/7.3.1/em4_dmips\libgcc.a(_millicodethunk_ret.o)
 .ARC.attributes
                0x0000036b       0x3a c:/arc_gnu/bin/../lib/gcc/arc-elf32/7.3.1/em4_dmips\libgcc.a(_divdi3.o)
 .ARC.attributes
                0x000003a5       0x3a c:/arc_gnu/bin/../lib/gcc/arc-elf32/7.3.1/em4_dmips\libgcc.a(_udivdi3.o)

.debug_frame    0x00000000     0x110c
 .debug_frame   0x00000000       0x2c C:/Users/jingru/Documents/git/learn_python/generator/test/out/obj_emsk_11/gnu_arcem4/application/./main.o
 .debug_frame   0x0000002c       0x28 C:/Users/jingru/Documents/git/learn_python/generator/test/out/obj_emsk_11/gnu_arcem4/board/board.o
 .debug_frame   0x00000054       0xa0 C:/Users/jingru/Documents/git/learn_python/generator/test/out/obj_emsk_11/gnu_arcem4/arc/startup/arc_cxx_support.o
 .debug_frame   0x000000f4       0x2c C:/Users/jingru/Documents/git/learn_python/generator/test/out/obj_emsk_11/gnu_arcem4/board/emsk/common/emsk_init.o
 .debug_frame   0x00000120       0xd4 C:/Users/jingru/Documents/git/learn_python/generator/test/out/obj_emsk_11/gnu_arcem4/board/emsk/common/emsk_timer.o
 .debug_frame   0x000001f4       0xc0 C:/Users/jingru/Documents/git/learn_python/generator/test/out/obj_emsk_11/gnu_arcem4/board/emsk/drivers/mux/mux.o
 .debug_frame   0x000002b4       0xa4 C:/Users/jingru/Documents/git/learn_python/generator/test/out/obj_emsk_11/gnu_arcem4/middleware/common/console_io.o
 .debug_frame   0x00000358      0x1bc C:/Users/jingru/Documents/git/learn_python/generator/test/out/obj_emsk_11/gnu_arcem4/middleware/common/xprintf/xprintf.o
 .debug_frame   0x00000514       0xd0 C:/Users/jingru/Documents/git/learn_python/generator/test/out/obj_emsk_11/gnu_arcem4/arc/arc_timer.o
 .debug_frame   0x000005e4      0x15c C:/Users/jingru/Documents/git/learn_python/generator/test/out/obj_emsk_11/gnu_arcem4/arc/arc_cache.o
 .debug_frame   0x00000740      0x1d8 C:/Users/jingru/Documents/git/learn_python/generator/test/out/obj_emsk_11/gnu_arcem4/arc/arc_exception.o
 .debug_frame   0x00000918       0x20 C:/Users/jingru/Documents/git/learn_python/generator/test/out/obj_emsk_11/gnu_arcem4/library/clib/embARC_misc.o
 .debug_frame   0x00000938      0x104 C:/Users/jingru/Documents/git/learn_python/generator/test/out/obj_emsk_11/gnu_arcem4/board/emsk/drivers/ip/designware/uart/dw_uart_obj.o
 .debug_frame   0x00000a3c      0x250 C:/Users/jingru/Documents/git/learn_python/generator/test/out/obj_emsk_11/gnu_arcem4/device/ip/designware/uart/dw_uart.o
 .debug_frame   0x00000c8c      0x140 C:/Users/jingru/Documents/git/learn_python/generator/test/out/obj_emsk_11/gnu_arcem4/board/emsk/common/emsk_gpio.o
 .debug_frame   0x00000dcc      0x1c4 C:/Users/jingru/Documents/git/learn_python/generator/test/out/obj_emsk_11/gnu_arcem4/board/emsk/drivers/ip/designware/gpio/dw_gpio_obj.o
 .debug_frame   0x00000f90      0x108 C:/Users/jingru/Documents/git/learn_python/generator/test/out/obj_emsk_11/gnu_arcem4/device/ip/designware/gpio/dw_gpio.o
 .debug_frame   0x00001098       0x20 c:/arc_gnu/bin/../lib/gcc/arc-elf32/7.3.1/em4_dmips\libgcc.a(_divdi3.o)
 .debug_frame   0x000010b8       0x54 c:/arc_gnu/bin/../lib/gcc/arc-elf32/7.3.1/em4_dmips\libgcc.a(_udivdi3.o)

.debug_loc      0x00000000     0x4d02
 .debug_loc     0x00000000       0x9f C:/Users/jingru/Documents/git/learn_python/generator/test/out/obj_emsk_11/gnu_arcem4/arc/startup/arc_cxx_support.o
 .debug_loc     0x0000009f      0x12f C:/Users/jingru/Documents/git/learn_python/generator/test/out/obj_emsk_11/gnu_arcem4/board/emsk/common/emsk_timer.o
 .debug_loc     0x000001ce      0x117 C:/Users/jingru/Documents/git/learn_python/generator/test/out/obj_emsk_11/gnu_arcem4/board/emsk/drivers/mux/mux.o
 .debug_loc     0x000002e5       0xeb C:/Users/jingru/Documents/git/learn_python/generator/test/out/obj_emsk_11/gnu_arcem4/middleware/common/console_io.o
 .debug_loc     0x000003d0      0xa50 C:/Users/jingru/Documents/git/learn_python/generator/test/out/obj_emsk_11/gnu_arcem4/middleware/common/xprintf/xprintf.o
 .debug_loc     0x00000e20      0x201 C:/Users/jingru/Documents/git/learn_python/generator/test/out/obj_emsk_11/gnu_arcem4/arc/arc_timer.o
 .debug_loc     0x00001021      0x554 C:/Users/jingru/Documents/git/learn_python/generator/test/out/obj_emsk_11/gnu_arcem4/arc/arc_cache.o
 .debug_loc     0x00001575      0x744 C:/Users/jingru/Documents/git/learn_python/generator/test/out/obj_emsk_11/gnu_arcem4/arc/arc_exception.o
 .debug_loc     0x00001cb9      0x2f7 C:/Users/jingru/Documents/git/learn_python/generator/test/out/obj_emsk_11/gnu_arcem4/board/emsk/drivers/ip/designware/uart/dw_uart_obj.o
 .debug_loc     0x00001fb0     0x128f C:/Users/jingru/Documents/git/learn_python/generator/test/out/obj_emsk_11/gnu_arcem4/device/ip/designware/uart/dw_uart.o
 .debug_loc     0x0000323f      0x1a2 C:/Users/jingru/Documents/git/learn_python/generator/test/out/obj_emsk_11/gnu_arcem4/board/emsk/common/emsk_gpio.o
 .debug_loc     0x000033e1      0x666 C:/Users/jingru/Documents/git/learn_python/generator/test/out/obj_emsk_11/gnu_arcem4/board/emsk/drivers/ip/designware/gpio/dw_gpio_obj.o
 .debug_loc     0x00003a47     0x12bb C:/Users/jingru/Documents/git/learn_python/generator/test/out/obj_emsk_11/gnu_arcem4/device/ip/designware/gpio/dw_gpio.o
